; Function Attrs: nounwind uwtable
define dso_local i64 @jsonb_delete_path(ptr noundef readonly captures(none) %0) local_unnamed_addr #0 {
  %2 = alloca ptr, align 8
  %3 = alloca ptr, align 8
  %4 = alloca i32, align 4
  %5 = alloca ptr, align 8
  %6 = alloca ptr, align 8
  %7 = getelementptr inbounds nuw i8, ptr %0, i64 32
  %8 = load i64, ptr %7, align 8
  %9 = inttoptr i64 %8 to ptr
  %10 = tail call ptr @pg_detoast_datum(ptr noundef %9) #15
  %11 = getelementptr inbounds nuw i8, ptr %0, i64 48
  %12 = load i64, ptr %11, align 8
  %13 = inttoptr i64 %12 to ptr
  %14 = tail call ptr @pg_detoast_datum(ptr noundef %13) #15
  call void @llvm.lifetime.start.p0(i64 8, ptr nonnull %2) #15
  call void @llvm.lifetime.start.p0(i64 8, ptr nonnull %3) #15
  call void @llvm.lifetime.start.p0(i64 4, ptr nonnull %4) #15
  call void @llvm.lifetime.start.p0(i64 8, ptr nonnull %5) #15
  call void @llvm.lifetime.start.p0(i64 8, ptr nonnull %6) #15
  store ptr null, ptr %6, align 8
  %15 = getelementptr inbounds nuw i8, ptr %14, i64 4
  %16 = load i32, ptr %15, align 4
  %17 = icmp sgt i32 %16, 1
  br i1 %17, label %18, label %22

18:                                               ; preds = %1
  %19 = tail call zeroext i1 @errstart_cold(i32 noundef 21, ptr noundef null) #16
  tail call void @llvm.assume(i1 %19)
  %20 = tail call i32 @errcode(i32 noundef 352845954) #15
  %21 = tail call i32 (ptr, ...) @errmsg(ptr noundef nonnull @.str.27) #15
  tail call void @errfinish(ptr noundef nonnull @.str.2, i32 noundef 4975, ptr noundef nonnull @__func__.jsonb_delete_path) #15
  unreachable

22:                                               ; preds = %1
  %23 = getelementptr inbounds nuw i8, ptr %10, i64 4
  %24 = load i32, ptr %23, align 4
  %25 = and i32 %24, 268435456
  %.not = icmp eq i32 %25, 0
  br i1 %.not, label %30, label %26

26:                                               ; preds = %22
  %27 = tail call zeroext i1 @errstart_cold(i32 noundef 21, ptr noundef null) #16
  tail call void @llvm.assume(i1 %27)
  %28 = tail call i32 @errcode(i32 noundef 50856066) #15
  %29 = tail call i32 (ptr, ...) @errmsg(ptr noundef nonnull @.str.39) #15
  tail call void @errfinish(ptr noundef nonnull @.str.2, i32 noundef 4980, ptr noundef nonnull @__func__.jsonb_delete_path) #15
  unreachable

30:                                               ; preds = %22
  %31 = and i32 %24, 268435455
  %32 = icmp eq i32 %31, 0
  br i1 %32, label %43, label %33

33:                                               ; preds = %30
  call void @deconstruct_array_builtin(ptr noundef nonnull %14, i32 noundef 25, ptr noundef nonnull %2, ptr noundef nonnull %3, ptr noundef nonnull %4) #15
  %34 = load i32, ptr %4, align 4
  %35 = icmp eq i32 %34, 0
  br i1 %35, label %43, label %36

36:                                               ; preds = %33
  %37 = call ptr @JsonbIteratorInit(ptr noundef nonnull %23) #15
  store ptr %37, ptr %5, align 8
  %38 = load ptr, ptr %2, align 8
  %39 = load ptr, ptr %3, align 8
  %40 = load i32, ptr %4, align 4
  %41 = call fastcc ptr @setPath(ptr noundef %5, ptr noundef %38, ptr noundef %39, i32 noundef %40, ptr noundef %6, i32 noundef 0, ptr noundef null, i32 noundef 2)
  %42 = call ptr @JsonbValueToJsonb(ptr noundef %41) #15
  br label %43

43:                                               ; preds = %33, %30, %36
  %.0.in = phi ptr [ %42, %36 ], [ %10, %30 ], [ %10, %33 ]
  %.0 = ptrtoint ptr %.0.in to i64
  call void @llvm.lifetime.end.p0(i64 8, ptr nonnull %6) #15
  call void @llvm.lifetime.end.p0(i64 8, ptr nonnull %5) #15
  call void @llvm.lifetime.end.p0(i64 4, ptr nonnull %4) #15
  call void @llvm.lifetime.end.p0(i64 8, ptr nonnull %3) #15
  call void @llvm.lifetime.end.p0(i64 8, ptr nonnull %2) #15
  ret i64 %.0
}